; Function Attrs: nounwind sspstrong uwtable
define internal noundef i64 @ossl_x509extfactory_set_crl(i64 noundef %0, i64 noundef returned %1) #0 {
  %3 = tail call ptr @rb_check_typeddata(i64 noundef %0, ptr noundef nonnull @ossl_x509extfactory_type) #5
  %.not = icmp eq ptr %3, null
  br i1 %.not, label %4, label %6

4:                                                ; preds = %2
  %5 = load i64, ptr @rb_eRuntimeError, align 8, !tbaa !6
  tail call void (i64, ptr, ...) @ossl_raise(i64 noundef %5, ptr noundef nonnull @.str.30) #6
  unreachable

6:                                                ; preds = %2
  %7 = tail call i64 @rb_iv_set(i64 noundef %0, ptr noundef nonnull @.str.34, i64 noundef %1) #5
  %8 = tail call ptr @GetX509CRLPtr(i64 noundef %1) #5
  %9 = getelementptr inbounds nuw i8, ptr %3, i64 32
  store ptr %8, ptr %9, align 8, !tbaa !29
  ret i64 %1
}